; ModuleID = '15/172.c'
source_filename = "15/172.c"
target datalayout = "e-m:e-p270:32:32-p271:32:32-p272:64:64-i64:64-f80:128-n8:16:32:64-S128"
target triple = "x86_64-pc-linux-gnu"

@.str = private unnamed_addr constant [3 x i8] c"%d\00", align 1
@.str.1 = private unnamed_addr constant [4 x i8] c"%d\0A\00", align 1

; Function Attrs: noinline nounwind uwtable
define dso_local i32 @main(i32 %0, i8** %1) #0 {
  %3 = alloca i32, align 4
  %4 = alloca i32, align 4
  %5 = alloca i8**, align 8
  %6 = alloca [101 x [100 x i32]], align 16
  %7 = alloca i32, align 4
  %8 = alloca i32, align 4
  %9 = alloca i32, align 4
  %10 = alloca i32, align 4
  %11 = alloca i32, align 4
  %12 = alloca i32, align 4
  %13 = alloca i32, align 4
  %14 = alloca i32, align 4
  store i32 0, i32* %3, align 4
  store i32 %0, i32* %4, align 4
  store i8** %1, i8*** %5, align 8
  %15 = call i32 (i8*, ...) @__isoc99_scanf(i8* getelementptr inbounds ([3 x i8], [3 x i8]* @.str, i64 0, i64 0), i32* %7)
  store i32 0, i32* %9, align 4
  store i32 0, i32* %8, align 4
  store i32 0, i32* %8, align 4
  br label %16

16:                                               ; preds = %37, %2
  %17 = load i32, i32* %8, align 4
  %18 = load i32, i32* %7, align 4
  %19 = icmp slt i32 %17, %18
  br i1 %19, label %20, label %40

20:                                               ; preds = %16
  store i32 0, i32* %9, align 4
  br label %21

21:                                               ; preds = %33, %20
  %22 = load i32, i32* %9, align 4
  %23 = load i32, i32* %7, align 4
  %24 = icmp slt i32 %22, %23
  br i1 %24, label %25, label %36

25:                                               ; preds = %21
  %26 = load i32, i32* %8, align 4
  %27 = sext i32 %26 to i64
  %28 = getelementptr inbounds [101 x [100 x i32]], [101 x [100 x i32]]* %6, i64 0, i64 %27
  %29 = load i32, i32* %9, align 4
  %30 = sext i32 %29 to i64
  %31 = getelementptr inbounds [100 x i32], [100 x i32]* %28, i64 0, i64 %30
  %32 = call i32 (i8*, ...) @__isoc99_scanf(i8* getelementptr inbounds ([3 x i8], [3 x i8]* @.str, i64 0, i64 0), i32* %31)
  br label %33

33:                                               ; preds = %25
  %34 = load i32, i32* %9, align 4
  %35 = add nsw i32 %34, 1
  store i32 %35, i32* %9, align 4
  br label %21

36:                                               ; preds = %21
  br label %37

37:                                               ; preds = %36
  %38 = load i32, i32* %8, align 4
  %39 = add nsw i32 %38, 1
  store i32 %39, i32* %8, align 4
  br label %16

40:                                               ; preds = %16
  store i32 0, i32* %13, align 4
  store i32 0, i32* %12, align 4
  store i32 0, i32* %11, align 4
  store i32 0, i32* %10, align 4
  store i32 0, i32* %9, align 4
  store i32 0, i32* %8, align 4
  br label %41

41:                                               ; preds = %71, %40
  br label %42

42:                                               ; preds = %64, %41
  %43 = load i32, i32* %8, align 4
  %44 = sext i32 %43 to i64
  %45 = getelementptr inbounds [101 x [100 x i32]], [101 x [100 x i32]]* %6, i64 0, i64 %44
  %46 = load i32, i32* %9, align 4
  %47 = sext i32 %46 to i64
  %48 = getelementptr inbounds [100 x i32], [100 x i32]* %45, i64 0, i64 %47
  %49 = load i32, i32* %48, align 4
  %50 = icmp eq i32 %49, 0
  br i1 %50, label %51, label %61

51:                                               ; preds = %42
  %52 = load i32, i32* %10, align 4
  %53 = icmp eq i32 %52, 0
  br i1 %53, label %54, label %61

54:                                               ; preds = %51
  %55 = load i32, i32* %11, align 4
  %56 = icmp eq i32 %55, 0
  br i1 %56, label %57, label %61

57:                                               ; preds = %54
  %58 = load i32, i32* %8, align 4
  store i32 %58, i32* %10, align 4
  %59 = load i32, i32* %9, align 4
  %60 = add nsw i32 %59, 1
  store i32 %60, i32* %11, align 4
  br label %61

61:                                               ; preds = %57, %54, %51, %42
  %62 = load i32, i32* %9, align 4
  %63 = add nsw i32 %62, 1
  store i32 %63, i32* %9, align 4
  br label %64

64:                                               ; preds = %61
  %65 = load i32, i32* %9, align 4
  %66 = load i32, i32* %7, align 4
  %67 = icmp slt i32 %65, %66
  br i1 %67, label %42, label %68

68:                                               ; preds = %64
  store i32 0, i32* %9, align 4
  %69 = load i32, i32* %8, align 4
  %70 = add nsw i32 %69, 1
  store i32 %70, i32* %8, align 4
  br label %71

71:                                               ; preds = %68
  %72 = load i32, i32* %8, align 4
  %73 = load i32, i32* %7, align 4
  %74 = icmp slt i32 %72, %73
  br i1 %74, label %41, label %75

75:                                               ; preds = %71
  store i32 0, i32* %9, align 4
  store i32 0, i32* %8, align 4
  br label %76

76:                                               ; preds = %107, %75
  br label %77

77:                                               ; preds = %100, %76
  %78 = load i32, i32* %8, align 4
  %79 = sext i32 %78 to i64
  %80 = getelementptr inbounds [101 x [100 x i32]], [101 x [100 x i32]]* %6, i64 0, i64 %79
  %81 = load i32, i32* %9, align 4
  %82 = sext i32 %81 to i64
  %83 = getelementptr inbounds [100 x i32], [100 x i32]* %80, i64 0, i64 %82
  %84 = load i32, i32* %83, align 4
  %85 = icmp eq i32 %84, 0
  br i1 %85, label %86, label %97

86:                                               ; preds = %77
  %87 = load i32, i32* %12, align 4
  %88 = load i32, i32* %8, align 4
  %89 = icmp sle i32 %87, %88
  br i1 %89, label %90, label %97

90:                                               ; preds = %86
  %91 = load i32, i32* %13, align 4
  %92 = load i32, i32* %9, align 4
  %93 = icmp sle i32 %91, %92
  br i1 %93, label %94, label %97

94:                                               ; preds = %90
  %95 = load i32, i32* %8, align 4
  store i32 %95, i32* %12, align 4
  %96 = load i32, i32* %9, align 4
  store i32 %96, i32* %13, align 4
  br label %97

97:                                               ; preds = %94, %90, %86, %77
  %98 = load i32, i32* %9, align 4
  %99 = add nsw i32 %98, 1
  store i32 %99, i32* %9, align 4
  br label %100

100:                                              ; preds = %97
  %101 = load i32, i32* %9, align 4
  %102 = load i32, i32* %7, align 4
  %103 = icmp slt i32 %101, %102
  br i1 %103, label %77, label %104

104:                                              ; preds = %100
  store i32 0, i32* %9, align 4
  %105 = load i32, i32* %8, align 4
  %106 = add nsw i32 %105, 1
  store i32 %106, i32* %8, align 4
  br label %107

107:                                              ; preds = %104
  %108 = load i32, i32* %8, align 4
  %109 = load i32, i32* %7, align 4
  %110 = icmp slt i32 %108, %109
  br i1 %110, label %76, label %111

111:                                              ; preds = %107
  %112 = load i32, i32* %12, align 4
  %113 = load i32, i32* %10, align 4
  %114 = sub nsw i32 %112, %113
  %115 = sub nsw i32 %114, 1
  %116 = load i32, i32* %13, align 4
  %117 = load i32, i32* %11, align 4
  %118 = sub nsw i32 %116, %117
  %119 = mul nsw i32 %115, %118
  store i32 %119, i32* %14, align 4
  %120 = load i32, i32* %14, align 4
  %121 = call i32 (i8*, ...) @printf(i8* getelementptr inbounds ([4 x i8], [4 x i8]* @.str.1, i64 0, i64 0), i32 %120)
  ret i32 0
}

declare dso_local i32 @__isoc99_scanf(i8*, ...) #1

declare dso_local i32 @printf(i8*, ...) #1


!llvm.module.flags = !{!0}
!llvm.ident = !{!1}

!0 = !{i32 1, !"wchar_size", i32 4}
!1 = !{!"clang version 10.0.0-4ubuntu1 "}
